; Function Attrs: nounwind uwtable
define void @arrangeQuoters_superFast_iVar5(ptr noundef captures(none) %0, ptr noundef captures(none) %1, i32 noundef %2, i32 noundef %3, i32 noundef %4, i32 noundef %5, i32 noundef %6, ptr noundef %7, ptr noundef captures(none) %8) local_unnamed_addr #0 {
  %10 = sext i32 %2 to i64
  %11 = icmp eq i32 %3, 0
  %12 = icmp eq i32 %4, 1
  %or.cond = and i1 %11, %12
  br i1 %or.cond, label %49, label %13

13:                                               ; preds = %9
  %14 = icmp sgt i32 %2, 1
  br i1 %14, label %.lr.ph, label %._crit_edge

.lr.ph:                                           ; preds = %13
  %15 = add nsw i32 %2, -1
  %16 = getelementptr inbounds nuw i32, ptr %1, i64 %10
  %17 = sext i32 %3 to i64
  %18 = sub nsw i64 0, %17
  %19 = sext i32 %4 to i64
  %20 = sub nsw i64 0, %19
  %21 = sext i32 %5 to i64
  %22 = sub nsw i64 0, %21
  %23 = sext i32 %6 to i64
  %24 = sub nsw i64 0, %23
  %25 = zext nneg i32 %15 to i64
  br label %26

26:                                               ; preds = %.lr.ph, %26
  %indvars.iv = phi i64 [ %25, %.lr.ph ], [ %indvars.iv.next, %26 ]
  %.041 = phi ptr [ %16, %.lr.ph ], [ %37, %26 ]
  %27 = getelementptr inbounds i8, ptr %.041, i64 -4
  %28 = getelementptr inbounds nuw i32, ptr %0, i64 %indvars.iv
  %29 = getelementptr inbounds i32, ptr %28, i64 %18
  %30 = load i32, ptr %29, align 4
  store i32 %30, ptr %27, align 4
  %31 = getelementptr inbounds i8, ptr %.041, i64 -8
  %32 = getelementptr inbounds i32, ptr %28, i64 %20
  %33 = load i32, ptr %32, align 4
  store i32 %33, ptr %31, align 4
  %34 = getelementptr inbounds i8, ptr %.041, i64 -12
  %35 = getelementptr inbounds i32, ptr %28, i64 %22
  %36 = load i32, ptr %35, align 4
  store i32 %36, ptr %34, align 4
  %37 = getelementptr inbounds i8, ptr %.041, i64 -16
  %38 = getelementptr inbounds i32, ptr %28, i64 %24
  %39 = load i32, ptr %38, align 4
  store i32 %39, ptr %37, align 4
  %indvars.iv.next = add nsw i64 %indvars.iv, -4
  %40 = icmp samesign ugt i64 %indvars.iv, 4
  br i1 %40, label %26, label %._crit_edge, !llvm.loop !18

._crit_edge:                                      ; preds = %26, %13
  %41 = shl nsw i64 %10, 2
  tail call void @llvm.memcpy.p0.p0.i64(ptr align 4 %0, ptr align 4 %1, i64 %41, i1 false)
  %42 = load i32, ptr %8, align 4, !tbaa !6
  %43 = sub nsw i32 %3, %4
  %44 = tail call i32 @llvm.abs.i32(i32 %43, i1 true)
  %45 = shl i32 %44, 2
  %46 = add i32 %3, -4
  %47 = add i32 %46, %45
  %48 = tail call i32 @adjustInfoAfterSwap(ptr noundef %7, i32 noundef %42, i32 noundef 5, i32 noundef %47) #9
  store i32 %48, ptr %8, align 4, !tbaa !6
  br label %49

49:                                               ; preds = %9, %._crit_edge
  ret void
}